target datalayout = "e-m:e-p270:32:32-p271:32:32-p272:64:64-i64:64-i128:128-f80:128-n8:16:32:64-S128"
target triple = "x86_64-pc-linux-gnu"

%"struct.std::_List_iterator" = type { ptr }
%"class.base::BasicStringPiece" = type { ptr, i64 }
%"class.net::SpdyHeaderBlock::StringPieceProxy" = type <{ ptr, ptr, %"struct.std::_List_iterator", %"class.base::BasicStringPiece", i8, [7 x i8] }>

; Function Attrs: mustprogress nounwind uwtable
define void @_ZN3net15SpdyHeaderBlock16StringPieceProxyC2EP15linked_hash_mapIN4base16BasicStringPieceINSt7__cxx1112basic_stringIcSt11char_traitsIcESaIcEEEEESB_NS3_15StringPieceHashEEPNS0_7StorageESt14_List_iteratorISt4pairISB_SB_EESB_(ptr noundef nonnull align 8 dereferenceable(41) %0, ptr noundef %1, ptr noundef %2, ptr %3, ptr %4, i64 %5) unnamed_addr #0 align 2 {
  %7 = alloca %"struct.std::_List_iterator", align 8
  %8 = alloca %"class.base::BasicStringPiece", align 8
  %9 = alloca ptr, align 8
  %10 = alloca ptr, align 8
  %11 = alloca ptr, align 8
  %12 = getelementptr inbounds nuw %"struct.std::_List_iterator", ptr %7, i32 0, i32 0
  store ptr %3, ptr %12, align 8
  %13 = getelementptr inbounds nuw { ptr, i64 }, ptr %8, i32 0, i32 0
  store ptr %4, ptr %13, align 8
  %14 = getelementptr inbounds nuw { ptr, i64 }, ptr %8, i32 0, i32 1
  store i64 %5, ptr %14, align 8
  store ptr %0, ptr %9, align 8, !tbaa !3
  store ptr %1, ptr %10, align 8, !tbaa !8
  store ptr %2, ptr %11, align 8, !tbaa !10
  %15 = load ptr, ptr %9, align 8
  %16 = getelementptr inbounds nuw %"class.net::SpdyHeaderBlock::StringPieceProxy", ptr %15, i32 0, i32 0
  %17 = load ptr, ptr %10, align 8, !tbaa !8
  store ptr %17, ptr %16, align 8, !tbaa !12
  %18 = getelementptr inbounds nuw %"class.net::SpdyHeaderBlock::StringPieceProxy", ptr %15, i32 0, i32 1
  %19 = load ptr, ptr %11, align 8, !tbaa !10
  store ptr %19, ptr %18, align 8, !tbaa !20
  %20 = getelementptr inbounds nuw %"class.net::SpdyHeaderBlock::StringPieceProxy", ptr %15, i32 0, i32 2
  call void @llvm.memcpy.p0.p0.i64(ptr align 8 %20, ptr align 8 %7, i64 8, i1 false), !tbaa.struct !21
  %21 = getelementptr inbounds nuw %"class.net::SpdyHeaderBlock::StringPieceProxy", ptr %15, i32 0, i32 3
  call void @llvm.memcpy.p0.p0.i64(ptr align 8 %21, ptr align 8 %8, i64 16, i1 false), !tbaa.struct !23
  %22 = getelementptr inbounds nuw %"class.net::SpdyHeaderBlock::StringPieceProxy", ptr %15, i32 0, i32 4
  store i8 1, ptr %22, align 8, !tbaa !26
  ret void
}