; Function Attrs: mustprogress nofree norecurse nosync nounwind willreturn memory(argmem: write) uwtable
define void @_ZN3net15SpdyHeaderBlock16StringPieceProxyC2EP15linked_hash_mapIN4base16BasicStringPieceINSt7__cxx1112basic_stringIcSt11char_traitsIcESaIcEEEEESB_NS3_15StringPieceHashEEPNS0_7StorageESt14_List_iteratorISt4pairISB_SB_EESB_(ptr noundef nonnull writeonly align 8 captures(none) dereferenceable(41) initializes((0, 41)) %0, ptr noundef %1, ptr noundef %2, ptr %3, ptr %4, i64 %5) unnamed_addr #0 align 2 {
  store ptr %1, ptr %0, align 8, !tbaa !3
  %7 = getelementptr inbounds nuw i8, ptr %0, i64 8
  store ptr %2, ptr %7, align 8, !tbaa !16
  %8 = getelementptr inbounds nuw i8, ptr %0, i64 16
  store ptr %3, ptr %8, align 8, !tbaa !17
  %9 = getelementptr inbounds nuw i8, ptr %0, i64 24
  store ptr %4, ptr %9, align 8, !tbaa !18
  %.sroa.2.0..sroa_idx = getelementptr inbounds nuw i8, ptr %0, i64 32
  store i64 %5, ptr %.sroa.2.0..sroa_idx, align 8, !tbaa !19
  %10 = getelementptr inbounds nuw i8, ptr %0, i64 40
  store i8 1, ptr %10, align 8, !tbaa !20
  ret void
}